target datalayout = "e-m:e-p270:32:32-p271:32:32-p272:64:64-i64:64-i128:128-f80:128-n8:16:32:64-S128"
target triple = "x86_64-pc-linux-gnu"

%"class.cv::NAryMatIterator" = type { ptr, ptr, ptr, i32, i64, i64, i32, i64 }

; Function Attrs: mustprogress uwtable
define void @_ZN2cv15NAryMatIteratorC2EPPKNS_3MatEPS1_i(ptr noundef nonnull align 8 dereferenceable(64) %0, ptr noundef %1, ptr noundef %2, i32 noundef %3) unnamed_addr #1 align 2 {
  %5 = alloca ptr, align 8
  %6 = alloca ptr, align 8
  %7 = alloca ptr, align 8
  %8 = alloca i32, align 4
  store ptr %0, ptr %5, align 8, !tbaa !3
  store ptr %1, ptr %6, align 8, !tbaa !23
  store ptr %2, ptr %7, align 8, !tbaa !24
  store i32 %3, ptr %8, align 4, !tbaa !25
  %9 = load ptr, ptr %5, align 8
  %10 = getelementptr inbounds nuw %"class.cv::NAryMatIterator", ptr %9, i32 0, i32 0
  store ptr null, ptr %10, align 8, !tbaa !8
  %11 = getelementptr inbounds nuw %"class.cv::NAryMatIterator", ptr %9, i32 0, i32 1
  store ptr null, ptr %11, align 8, !tbaa !16
  %12 = getelementptr inbounds nuw %"class.cv::NAryMatIterator", ptr %9, i32 0, i32 2
  store ptr null, ptr %12, align 8, !tbaa !17
  %13 = getelementptr inbounds nuw %"class.cv::NAryMatIterator", ptr %9, i32 0, i32 3
  store i32 0, ptr %13, align 8, !tbaa !18
  %14 = getelementptr inbounds nuw %"class.cv::NAryMatIterator", ptr %9, i32 0, i32 4
  store i64 0, ptr %14, align 8, !tbaa !19
  %15 = getelementptr inbounds nuw %"class.cv::NAryMatIterator", ptr %9, i32 0, i32 5
  store i64 0, ptr %15, align 8, !tbaa !20
  %16 = getelementptr inbounds nuw %"class.cv::NAryMatIterator", ptr %9, i32 0, i32 6
  store i32 0, ptr %16, align 8, !tbaa !21
  %17 = getelementptr inbounds nuw %"class.cv::NAryMatIterator", ptr %9, i32 0, i32 7
  store i64 0, ptr %17, align 8, !tbaa !22
  %18 = load ptr, ptr %6, align 8, !tbaa !23
  %19 = load ptr, ptr %7, align 8, !tbaa !24
  %20 = load i32, ptr %8, align 4, !tbaa !25
  call void @_ZN2cv15NAryMatIterator4initEPPKNS_3MatEPS1_PPhi(ptr noundef nonnull align 8 dereferenceable(64) %9, ptr noundef %18, ptr noundef %19, ptr noundef null, i32 noundef %20)
  ret void
}